target datalayout = "e-m:e-p270:32:32-p271:32:32-p272:64:64-i64:64-i128:128-f80:128-n8:16:32:64-S128"
target triple = "x86_64-pc-linux-gnu"

%"struct.std::_Rb_tree_header" = type { %"struct.std::_Rb_tree_node_base", i64 }
%"struct.std::_Rb_tree_node_base" = type { i32, ptr, ptr, ptr }
%"struct.vcpkg::(anonymous namespace)::BaselineProviderImpl" = type { %"struct.vcpkg::IBaselineProvider", ptr, %"struct.vcpkg::Cache" }
%"struct.vcpkg::IBaselineProvider" = type { ptr }
%"struct.vcpkg::Cache" = type { %"class.std::map.112" }
%"class.std::map.112" = type { %"class.std::_Rb_tree.113" }
%"class.std::_Rb_tree.113" = type { %"struct.std::_Rb_tree<std::__cxx11::basic_string<char>, std::pair<const std::__cxx11::basic_string<char>, vcpkg::ExpectedT<vcpkg::Version, vcpkg::LocalizedString>>, std::_Select1st<std::pair<const std::__cxx11::basic_string<char>, vcpkg::ExpectedT<vcpkg::Version, vcpkg::LocalizedString>>>, std::less<void>>::_Rb_tree_impl" }
%"struct.std::_Rb_tree<std::__cxx11::basic_string<char>, std::pair<const std::__cxx11::basic_string<char>, vcpkg::ExpectedT<vcpkg::Version, vcpkg::LocalizedString>>, std::_Select1st<std::pair<const std::__cxx11::basic_string<char>, vcpkg::ExpectedT<vcpkg::Version, vcpkg::LocalizedString>>>, std::less<void>>::_Rb_tree_impl" = type { %"struct.std::_Rb_tree_key_compare.117", %"struct.std::_Rb_tree_header" }
%"struct.std::_Rb_tree_key_compare.117" = type { %"struct.std::less.118" }
%"struct.std::less.118" = type { i8 }

; Function Attrs: mustprogress nounwind uwtable
define linkonce_odr dso_local void @_ZNSt15__new_allocatorISt13_Rb_tree_nodeISt4pairIKNSt7__cxx1112basic_stringIcSt11char_traitsIcESaIcEEEN5vcpkg9ExpectedTINS9_7VersionENS9_15LocalizedStringEEEEEED2Ev(ptr noundef nonnull align 1 dereferenceable(1) %0) unnamed_addr #0 comdat align 2 {
  %2 = alloca ptr, align 8
  store ptr %0, ptr %2, align 8
  ret void
}

; Function Attrs: mustprogress nounwind uwtable
define linkonce_odr dso_local void @_ZNSaISt13_Rb_tree_nodeISt4pairIKNSt7__cxx1112basic_stringIcSt11char_traitsIcESaIcEEEN5vcpkg9ExpectedTINS8_7VersionENS8_15LocalizedStringEEEEEED2Ev(ptr noundef nonnull align 1 dereferenceable(1) %0) unnamed_addr #0 comdat align 2 {
  %2 = alloca ptr, align 8
  store ptr %0, ptr %2, align 8
  %3 = load ptr, ptr %2, align 8
  call void @_ZNSt15__new_allocatorISt13_Rb_tree_nodeISt4pairIKNSt7__cxx1112basic_stringIcSt11char_traitsIcESaIcEEEN5vcpkg9ExpectedTINS9_7VersionENS9_15LocalizedStringEEEEEED2Ev(ptr noundef nonnull align 1 dereferenceable(1) %3) #13
  ret void
}

; Function Attrs: mustprogress nounwind uwtable
define linkonce_odr dso_local noundef ptr @_ZNKSt8_Rb_treeINSt7__cxx1112basic_stringIcSt11char_traitsIcESaIcEEESt4pairIKS5_N5vcpkg9ExpectedTINS8_7VersionENS8_15LocalizedStringEEEESt10_Select1stISD_ESt4lessIvESaISD_EE9_M_mbeginEv(ptr noundef nonnull align 8 dereferenceable(48) %0) #0 comdat align 2 {
  %2 = alloca ptr, align 8
  store ptr %0, ptr %2, align 8
  %3 = load ptr, ptr %2, align 8
  %4 = getelementptr inbounds %"class.std::_Rb_tree.113", ptr %3, i32 0, i32 0
  %5 = getelementptr inbounds i8, ptr %4, i64 8
  %6 = getelementptr inbounds %"struct.std::_Rb_tree_header", ptr %5, i32 0, i32 0
  %7 = getelementptr inbounds %"struct.std::_Rb_tree_node_base", ptr %6, i32 0, i32 1
  %8 = load ptr, ptr %7, align 8
  ret ptr %8
}

; Function Attrs: mustprogress nounwind uwtable
define linkonce_odr dso_local void @_ZNSt8_Rb_treeINSt7__cxx1112basic_stringIcSt11char_traitsIcESaIcEEESt4pairIKS5_N5vcpkg9ExpectedTINS8_7VersionENS8_15LocalizedStringEEEESt10_Select1stISD_ESt4lessIvESaISD_EE13_Rb_tree_implISH_Lb1EED2Ev(ptr noundef nonnull align 8 dereferenceable(48) %0) unnamed_addr #0 comdat align 2 {
  %2 = alloca ptr, align 8
  store ptr %0, ptr %2, align 8
  %3 = load ptr, ptr %2, align 8
  call void @_ZNSaISt13_Rb_tree_nodeISt4pairIKNSt7__cxx1112basic_stringIcSt11char_traitsIcESaIcEEEN5vcpkg9ExpectedTINS8_7VersionENS8_15LocalizedStringEEEEEED2Ev(ptr noundef nonnull align 1 dereferenceable(1) %3) #13
  ret void
}

; Function Attrs: mustprogress nounwind uwtable
define linkonce_odr dso_local noundef ptr @_ZNSt8_Rb_treeINSt7__cxx1112basic_stringIcSt11char_traitsIcESaIcEEESt4pairIKS5_N5vcpkg9ExpectedTINS8_7VersionENS8_15LocalizedStringEEEESt10_Select1stISD_ESt4lessIvESaISD_EE8_M_beginEv(ptr noundef nonnull align 8 dereferenceable(48) %0) #0 comdat align 2 {
  %2 = alloca ptr, align 8
  store ptr %0, ptr %2, align 8
  %3 = load ptr, ptr %2, align 8
  %4 = call noundef ptr @_ZNKSt8_Rb_treeINSt7__cxx1112basic_stringIcSt11char_traitsIcESaIcEEESt4pairIKS5_N5vcpkg9ExpectedTINS8_7VersionENS8_15LocalizedStringEEEESt10_Select1stISD_ESt4lessIvESaISD_EE9_M_mbeginEv(ptr noundef nonnull align 8 dereferenceable(48) %3) #13
  ret ptr %4
}

; Function Attrs: mustprogress nounwind uwtable
define linkonce_odr dso_local void @_ZNSt8_Rb_treeINSt7__cxx1112basic_stringIcSt11char_traitsIcESaIcEEESt4pairIKS5_N5vcpkg9ExpectedTINS8_7VersionENS8_15LocalizedStringEEEESt10_Select1stISD_ESt4lessIvESaISD_EED2Ev(ptr noundef nonnull align 8 dereferenceable(48) %0) unnamed_addr #0 comdat align 2 personality ptr @__gxx_personality_v0 {
  %2 = alloca ptr, align 8
  store ptr %0, ptr %2, align 8
  %3 = load ptr, ptr %2, align 8
  %4 = call noundef ptr @_ZNSt8_Rb_treeINSt7__cxx1112basic_stringIcSt11char_traitsIcESaIcEEESt4pairIKS5_N5vcpkg9ExpectedTINS8_7VersionENS8_15LocalizedStringEEEESt10_Select1stISD_ESt4lessIvESaISD_EE8_M_beginEv(ptr noundef nonnull align 8 dereferenceable(48) %3) #13
  invoke void @_ZNSt8_Rb_treeINSt7__cxx1112basic_stringIcSt11char_traitsIcESaIcEEESt4pairIKS5_N5vcpkg9ExpectedTINS8_7VersionENS8_15LocalizedStringEEEESt10_Select1stISD_ESt4lessIvESaISD_EE8_M_eraseEPSt13_Rb_tree_nodeISD_E(ptr noundef nonnull align 8 dereferenceable(48) %3, ptr noundef %4)
          to label %5 unwind label %7

5:                                                ; preds = %1
  %6 = getelementptr inbounds %"class.std::_Rb_tree.113", ptr %3, i32 0, i32 0
  call void @_ZNSt8_Rb_treeINSt7__cxx1112basic_stringIcSt11char_traitsIcESaIcEEESt4pairIKS5_N5vcpkg9ExpectedTINS8_7VersionENS8_15LocalizedStringEEEESt10_Select1stISD_ESt4lessIvESaISD_EE13_Rb_tree_implISH_Lb1EED2Ev(ptr noundef nonnull align 8 dereferenceable(48) %6) #13
  ret void

7:                                                ; preds = %1
  %8 = landingpad { ptr, i32 }
          catch ptr null
  %9 = extractvalue { ptr, i32 } %8, 0
  call void @__clang_call_terminate(ptr %9) #14
  unreachable
}

; Function Attrs: mustprogress nounwind uwtable
define linkonce_odr dso_local void @_ZNSt3mapINSt7__cxx1112basic_stringIcSt11char_traitsIcESaIcEEEN5vcpkg9ExpectedTINS6_7VersionENS6_15LocalizedStringEEESt4lessIvESaISt4pairIKS5_SA_EEED2Ev(ptr noundef nonnull align 8 dereferenceable(48) %0) unnamed_addr #0 comdat align 2 {
  %2 = alloca ptr, align 8
  store ptr %0, ptr %2, align 8
  %3 = load ptr, ptr %2, align 8
  %4 = getelementptr inbounds %"class.std::map.112", ptr %3, i32 0, i32 0
  call void @_ZNSt8_Rb_treeINSt7__cxx1112basic_stringIcSt11char_traitsIcESaIcEEESt4pairIKS5_N5vcpkg9ExpectedTINS8_7VersionENS8_15LocalizedStringEEEESt10_Select1stISD_ESt4lessIvESaISD_EED2Ev(ptr noundef nonnull align 8 dereferenceable(48) %4) #13
  ret void
}

; Function Attrs: mustprogress nounwind uwtable
define linkonce_odr dso_local void @_ZN5vcpkg17IBaselineProviderD2Ev(ptr noundef nonnull align 8 dereferenceable(8) %0) unnamed_addr #0 comdat align 2 {
  %2 = alloca ptr, align 8
  store ptr %0, ptr %2, align 8
  ret void
}

; Function Attrs: mustprogress nounwind uwtable
define linkonce_odr dso_local void @_ZN5vcpkg5CacheINSt7__cxx1112basic_stringIcSt11char_traitsIcESaIcEEENS_9ExpectedTINS_7VersionENS_15LocalizedStringEEESt4lessIvEED2Ev(ptr noundef nonnull align 8 dereferenceable(48) %0) unnamed_addr #0 comdat align 2 {
  %2 = alloca ptr, align 8
  store ptr %0, ptr %2, align 8
  %3 = load ptr, ptr %2, align 8
  %4 = getelementptr inbounds %"struct.vcpkg::Cache", ptr %3, i32 0, i32 0
  call void @_ZNSt3mapINSt7__cxx1112basic_stringIcSt11char_traitsIcESaIcEEEN5vcpkg9ExpectedTINS6_7VersionENS6_15LocalizedStringEEESt4lessIvESaISt4pairIKS5_SA_EEED2Ev(ptr noundef nonnull align 8 dereferenceable(48) %4) #13
  ret void
}

; Function Attrs: mustprogress nounwind uwtable
define internal void @_ZN5vcpkg12_GLOBAL__N_120BaselineProviderImplD2Ev(ptr noundef nonnull align 8 dereferenceable(64) %0) unnamed_addr #0 align 2 {
  %2 = alloca ptr, align 8
  store ptr %0, ptr %2, align 8
  %3 = load ptr, ptr %2, align 8
  store ptr getelementptr inbounds ({ [5 x ptr] }, ptr @_ZTVN5vcpkg12_GLOBAL__N_120BaselineProviderImplE, i32 0, i32 0, i32 2), ptr %3, align 8
  %4 = getelementptr inbounds %"struct.vcpkg::(anonymous namespace)::BaselineProviderImpl", ptr %3, i32 0, i32 2
  call void @_ZN5vcpkg5CacheINSt7__cxx1112basic_stringIcSt11char_traitsIcESaIcEEENS_9ExpectedTINS_7VersionENS_15LocalizedStringEEESt4lessIvEED2Ev(ptr noundef nonnull align 8 dereferenceable(48) %4) #13
  call void @_ZN5vcpkg17IBaselineProviderD2Ev(ptr noundef nonnull align 8 dereferenceable(8) %3) #13
  ret void
}

; Function Attrs: mustprogress nounwind uwtable
define internal void @_ZN5vcpkg12_GLOBAL__N_120BaselineProviderImplD0Ev(ptr noundef nonnull align 8 dereferenceable(64) %0) unnamed_addr #0 align 2 {
  %2 = alloca ptr, align 8
  store ptr %0, ptr %2, align 8
  %3 = load ptr, ptr %2, align 8
  call void @_ZN5vcpkg12_GLOBAL__N_120BaselineProviderImplD2Ev(ptr noundef nonnull align 8 dereferenceable(64) %3) #13
  call void @_ZdlPv(ptr noundef %3) #16
  ret void
}