; Function Attrs: mustprogress nounwind uwtable
define internal void @_ZN5vcpkg12_GLOBAL__N_120BaselineProviderImplD0Ev(ptr noundef nonnull align 8 dereferenceable(64) %0) unnamed_addr #5 align 2 personality ptr @__gxx_personality_v0 {
  store ptr getelementptr inbounds ({ [5 x ptr] }, ptr @_ZTVN5vcpkg12_GLOBAL__N_120BaselineProviderImplE, i64 0, i32 0, i64 2), ptr %0, align 8
  %2 = getelementptr inbounds i8, ptr %0, i64 16
  %3 = getelementptr inbounds i8, ptr %0, i64 32
  %4 = load ptr, ptr %3, align 8
  invoke void @_ZNSt8_Rb_treeINSt7__cxx1112basic_stringIcSt11char_traitsIcESaIcEEESt4pairIKS5_N5vcpkg9ExpectedTINS8_7VersionENS8_15LocalizedStringEEEESt10_Select1stISD_ESt4lessIvESaISD_EE8_M_eraseEPSt13_Rb_tree_nodeISD_E(ptr noundef nonnull align 8 dereferenceable(48) %2, ptr noundef %4)
          to label %_ZN5vcpkg12_GLOBAL__N_120BaselineProviderImplD2Ev.exit unwind label %5

5:                                                ; preds = %1
  %6 = landingpad { ptr, i32 }
          catch ptr null
  %7 = extractvalue { ptr, i32 } %6, 0
  tail call void @__clang_call_terminate(ptr %7) #22
  unreachable

_ZN5vcpkg12_GLOBAL__N_120BaselineProviderImplD2Ev.exit: ; preds = %1
  tail call void @_ZdlPv(ptr noundef nonnull %0) #20
  ret void
}